; Function Attrs: nounwind uwtable
define zeroext range(i8 0, 2) i8 @l_Lean_Exception_isMaxHeartbeat(ptr noundef %0) local_unnamed_addr #1 {
  %2 = ptrtoint ptr %0 to i64
  %3 = and i64 %2, 1
  %.not.i = icmp eq i64 %3, 0
  br i1 %.not.i, label %7, label %4

4:                                                ; preds = %1
  %5 = lshr i64 %2, 1
  %6 = trunc i64 %5 to i32
  br label %lean_obj_tag.exit

7:                                                ; preds = %1
  %8 = getelementptr i8, ptr %0, i64 4
  %.val.i = load i32, ptr %8, align 4
  %9 = lshr i32 %.val.i, 24
  br label %lean_obj_tag.exit

lean_obj_tag.exit:                                ; preds = %4, %7
  %.0.i = phi i32 [ %6, %4 ], [ %9, %7 ]
  %10 = icmp eq i32 %.0.i, 0
  br i1 %10, label %11, label %lean_string_dec_eq.exit41

11:                                               ; preds = %lean_obj_tag.exit
  %12 = getelementptr inbounds nuw i8, ptr %0, i64 16
  %13 = load ptr, ptr %12, align 8, !tbaa !9
  %14 = ptrtoint ptr %13 to i64
  %15 = and i64 %14, 1
  %.not.i23 = icmp eq i64 %15, 0
  br i1 %.not.i23, label %19, label %16

16:                                               ; preds = %11
  %17 = lshr i64 %14, 1
  %18 = trunc i64 %17 to i32
  br label %lean_obj_tag.exit26

19:                                               ; preds = %11
  %20 = getelementptr i8, ptr %13, i64 4
  %.val.i25 = load i32, ptr %20, align 4
  %21 = lshr i32 %.val.i25, 24
  br label %lean_obj_tag.exit26

lean_obj_tag.exit26:                              ; preds = %16, %19
  %.0.i24 = phi i32 [ %18, %16 ], [ %21, %19 ]
  %22 = icmp eq i32 %.0.i24, 8
  br i1 %22, label %23, label %lean_string_dec_eq.exit41

23:                                               ; preds = %lean_obj_tag.exit26
  %24 = getelementptr inbounds nuw i8, ptr %13, i64 8
  %25 = load ptr, ptr %24, align 8, !tbaa !9
  %26 = ptrtoint ptr %25 to i64
  %27 = and i64 %26, 1
  %.not.i27 = icmp eq i64 %27, 0
  br i1 %.not.i27, label %31, label %28

28:                                               ; preds = %23
  %29 = lshr i64 %26, 1
  %30 = trunc i64 %29 to i32
  br label %lean_obj_tag.exit30

31:                                               ; preds = %23
  %32 = getelementptr i8, ptr %25, i64 4
  %.val.i29 = load i32, ptr %32, align 4
  %33 = lshr i32 %.val.i29, 24
  br label %lean_obj_tag.exit30

lean_obj_tag.exit30:                              ; preds = %28, %31
  %.0.i28 = phi i32 [ %30, %28 ], [ %33, %31 ]
  %34 = icmp eq i32 %.0.i28, 1
  br i1 %34, label %35, label %lean_string_dec_eq.exit41

35:                                               ; preds = %lean_obj_tag.exit30
  %36 = getelementptr inbounds nuw i8, ptr %25, i64 8
  %37 = load ptr, ptr %36, align 8, !tbaa !9
  %38 = ptrtoint ptr %37 to i64
  %39 = and i64 %38, 1
  %.not.i31 = icmp eq i64 %39, 0
  br i1 %.not.i31, label %43, label %40

40:                                               ; preds = %35
  %41 = lshr i64 %38, 1
  %42 = trunc i64 %41 to i32
  br label %lean_obj_tag.exit34

43:                                               ; preds = %35
  %44 = getelementptr i8, ptr %37, i64 4
  %.val.i33 = load i32, ptr %44, align 4
  %45 = lshr i32 %.val.i33, 24
  br label %lean_obj_tag.exit34

lean_obj_tag.exit34:                              ; preds = %40, %43
  %.0.i32 = phi i32 [ %42, %40 ], [ %45, %43 ]
  %46 = icmp eq i32 %.0.i32, 1
  br i1 %46, label %47, label %lean_string_dec_eq.exit41

47:                                               ; preds = %lean_obj_tag.exit34
  %48 = getelementptr inbounds nuw i8, ptr %37, i64 8
  %49 = load ptr, ptr %48, align 8, !tbaa !9
  %50 = ptrtoint ptr %49 to i64
  %51 = and i64 %50, 1
  %.not.i35 = icmp eq i64 %51, 0
  br i1 %.not.i35, label %55, label %52

52:                                               ; preds = %47
  %53 = lshr i64 %50, 1
  %54 = trunc i64 %53 to i32
  br label %lean_obj_tag.exit38

55:                                               ; preds = %47
  %56 = getelementptr i8, ptr %49, i64 4
  %.val.i37 = load i32, ptr %56, align 4
  %57 = lshr i32 %.val.i37, 24
  br label %lean_obj_tag.exit38

lean_obj_tag.exit38:                              ; preds = %52, %55
  %.0.i36 = phi i32 [ %54, %52 ], [ %57, %55 ]
  %58 = icmp eq i32 %.0.i36, 0
  br i1 %58, label %59, label %lean_string_dec_eq.exit41

59:                                               ; preds = %lean_obj_tag.exit38
  %60 = getelementptr inbounds nuw i8, ptr %25, i64 16
  %61 = load ptr, ptr %60, align 8, !tbaa !9
  %62 = getelementptr inbounds nuw i8, ptr %37, i64 16
  %63 = load ptr, ptr %62, align 8, !tbaa !9
  %64 = load ptr, ptr @l_Lean_throwMaxRecDepthAt___at_Lean_Core_withIncRecDepth___spec__1___rarg___closed__1, align 8, !tbaa !9
  %65 = icmp eq ptr %63, %64
  br i1 %65, label %lean_string_dec_eq.exit.thread42, label %66

66:                                               ; preds = %59
  %67 = getelementptr i8, ptr %63, i64 8
  %.val.i.i = load i64, ptr %67, align 8, !tbaa !12
  %68 = getelementptr i8, ptr %64, i64 8
  %.val7.i.i = load i64, ptr %68, align 8, !tbaa !12
  %69 = icmp eq i64 %.val.i.i, %.val7.i.i
  br i1 %69, label %lean_string_dec_eq.exit, label %lean_string_dec_eq.exit41

lean_string_dec_eq.exit:                          ; preds = %66
  %70 = tail call zeroext i1 @lean_string_eq_cold(ptr noundef nonnull %63, ptr noundef nonnull %64) #7
  br i1 %70, label %lean_string_dec_eq.exit.thread42, label %lean_string_dec_eq.exit41

lean_string_dec_eq.exit.thread42:                 ; preds = %59, %lean_string_dec_eq.exit
  %71 = load ptr, ptr @l_Lean_initFn____x40_Lean_CoreM___hyg_80____closed__1, align 8, !tbaa !9
  %72 = icmp eq ptr %61, %71
  br i1 %72, label %lean_string_dec_eq.exit41, label %73

73:                                               ; preds = %lean_string_dec_eq.exit.thread42
  %74 = getelementptr i8, ptr %61, i64 8
  %.val.i.i39 = load i64, ptr %74, align 8, !tbaa !12
  %75 = getelementptr i8, ptr %71, i64 8
  %.val7.i.i40 = load i64, ptr %75, align 8, !tbaa !12
  %76 = icmp eq i64 %.val.i.i39, %.val7.i.i40
  br i1 %76, label %77, label %lean_string_dec_eq.exit41

77:                                               ; preds = %73
  %78 = tail call zeroext i1 @lean_string_eq_cold(ptr noundef nonnull %61, ptr noundef nonnull %71) #7
  %79 = zext i1 %78 to i8
  br label %lean_string_dec_eq.exit41

lean_string_dec_eq.exit41:                        ; preds = %66, %77, %73, %lean_string_dec_eq.exit.thread42, %lean_obj_tag.exit, %lean_obj_tag.exit30, %lean_obj_tag.exit38, %lean_string_dec_eq.exit, %lean_obj_tag.exit34, %lean_obj_tag.exit26
  %.5 = phi i8 [ 0, %lean_string_dec_eq.exit ], [ 0, %lean_obj_tag.exit38 ], [ 0, %lean_obj_tag.exit34 ], [ 0, %lean_obj_tag.exit30 ], [ 0, %lean_obj_tag.exit26 ], [ 0, %lean_obj_tag.exit ], [ 1, %lean_string_dec_eq.exit.thread42 ], [ 0, %73 ], [ %79, %77 ], [ 0, %66 ]
  ret i8 %.5
}